; Function Attrs: nounwind uwtable
define hidden ptr @SDL_GetTrayEntryLabel_REAL(ptr noundef readonly captures(address_is_null) %0) local_unnamed_addr #0 {
  %.not = icmp eq ptr %0, null
  br i1 %.not, label %2, label %4

2:                                                ; preds = %1
  %3 = tail call zeroext i1 (ptr, ...) @SDL_SetError_REAL(ptr noundef nonnull @.str.7, ptr noundef nonnull @.str.9) #10
  br label %9

4:                                                ; preds = %1
  %5 = load ptr, ptr @gtk_menu_item_get_label, align 8
  %6 = getelementptr inbounds nuw i8, ptr %0, i64 8
  %7 = load ptr, ptr %6, align 8
  %8 = tail call ptr %5(ptr noundef %7) #10
  br label %9

9:                                                ; preds = %4, %2
  %.0 = phi ptr [ %8, %4 ], [ null, %2 ]
  ret ptr %.0
}